target datalayout = "e-m:e-p270:32:32-p271:32:32-p272:64:64-i64:64-i128:128-f80:128-n8:16:32:64-S128"
target triple = "x86_64-pc-linux-gnu"

%struct.mi_stats_s = type { i32, %struct.mi_stat_count_s, %struct.mi_stat_count_s, %struct.mi_stat_count_s, %struct.mi_stat_count_s, %struct.mi_stat_count_s, %struct.mi_stat_count_s, %struct.mi_stat_count_s, %struct.mi_stat_count_s, %struct.mi_stat_count_s, %struct.mi_stat_count_s, %struct.mi_stat_count_s, %struct.mi_stat_counter_s, %struct.mi_stat_counter_s, %struct.mi_stat_counter_s, %struct.mi_stat_counter_s, %struct.mi_stat_counter_s, %struct.mi_stat_counter_s, %struct.mi_stat_counter_s, %struct.mi_stat_counter_s, %struct.mi_stat_counter_s, %struct.mi_stat_counter_s, %struct.mi_stat_counter_s, %struct.mi_stat_counter_s, %struct.mi_stat_counter_s, %struct.mi_stat_count_s, %struct.mi_stat_count_s, %struct.mi_stat_count_s, %struct.mi_stat_count_s, %struct.mi_stat_counter_s, %struct.mi_stat_counter_s, %struct.mi_stat_counter_s, %struct.mi_stat_counter_s, [4 x %struct.mi_stat_count_s], [4 x %struct.mi_stat_counter_s], [74 x %struct.mi_stat_count_s], [74 x %struct.mi_stat_count_s] }
%struct.mi_stat_count_s = type { i64, i64, i64 }
%struct.mi_stat_counter_s = type { i64 }
%"struct.std::__atomic_base.3" = type { i64 }
%struct.timespec = type { i64, i64 }
%struct.mi_process_info_s = type { i64, i64, i64, i64, i64, i64, i64, i64 }
%struct.rusage = type { %struct.timeval, %struct.timeval, %union.anon.14, %union.anon.15, %union.anon.16, %union.anon.17, %union.anon.18, %union.anon.19, %union.anon.20, %union.anon.21, %union.anon.22, %union.anon.23, %union.anon.24, %union.anon.25, %union.anon.26, %union.anon.27 }
%struct.timeval = type { i64, i64 }
%union.anon.14 = type { i64 }
%union.anon.15 = type { i64 }
%union.anon.16 = type { i64 }
%union.anon.17 = type { i64 }
%union.anon.18 = type { i64 }
%union.anon.19 = type { i64 }
%union.anon.20 = type { i64 }
%union.anon.21 = type { i64 }
%union.anon.22 = type { i64 }
%union.anon.23 = type { i64 }
%union.anon.24 = type { i64 }
%union.anon.25 = type { i64 }
%union.anon.26 = type { i64 }
%union.anon.27 = type { i64 }

@_ZL16mi_process_start = internal global i64 0, align 8
@_ZL13mi_clock_diff = internal global i64 0, align 8

; Function Attrs: mustprogress nounwind uwtable
define linkonce_odr noundef i32 @_ZStanSt12memory_orderSt23__memory_order_modifier(i32 noundef %0, i32 noundef %1) #5 comdat {
  %3 = alloca i32, align 4
  %4 = alloca i32, align 4
  store i32 %0, ptr %3, align 4, !tbaa !32
  store i32 %1, ptr %4, align 4, !tbaa !428
  %5 = load i32, ptr %3, align 4, !tbaa !32
  %6 = load i32, ptr %4, align 4, !tbaa !428
  %7 = and i32 %5, %6
  ret i32 %7
}

; Function Attrs: mustprogress nounwind uwtable
define hidden noundef i64 @_Z18_mi_prim_clock_nowv() #5 {
  %1 = alloca %struct.timespec, align 8
  call void @llvm.lifetime.start.p0(i64 16, ptr %1) #19
  %2 = call i32 @clock_gettime(i32 noundef 1, ptr noundef %1) #19
  %3 = getelementptr inbounds nuw %struct.timespec, ptr %1, i32 0, i32 0
  %4 = load i64, ptr %3, align 8, !tbaa !332
  %5 = mul nsw i64 %4, 1000
  %6 = getelementptr inbounds nuw %struct.timespec, ptr %1, i32 0, i32 1
  %7 = load i64, ptr %6, align 8, !tbaa !334
  %8 = sdiv i64 %7, 1000000
  %9 = add nsw i64 %5, %8
  call void @llvm.lifetime.end.p0(i64 16, ptr %1) #19
  ret i64 %9
}

; Function Attrs: mustprogress nounwind uwtable
define internal noundef i64 @_ZL12timeval_secsPK7timeval(ptr noundef %0) #5 {
  %2 = alloca ptr, align 8
  store ptr %0, ptr %2, align 8, !tbaa !405
  %3 = load ptr, ptr %2, align 8, !tbaa !405
  %4 = getelementptr inbounds nuw %struct.timeval, ptr %3, i32 0, i32 0
  %5 = load i64, ptr %4, align 8, !tbaa !407
  %6 = mul nsw i64 %5, 1000
  %7 = load ptr, ptr %2, align 8, !tbaa !405
  %8 = getelementptr inbounds nuw %struct.timeval, ptr %7, i32 0, i32 1
  %9 = load i64, ptr %8, align 8, !tbaa !409
  %10 = sdiv i64 %9, 1000
  %11 = add nsw i64 %6, %10
  ret i64 %11
}

; Function Attrs: alwaysinline mustprogress nounwind uwtable
define linkonce_odr hidden noundef i64 @_ZNKSt13__atomic_baseIlE4loadESt12memory_order(ptr noundef nonnull align 8 dereferenceable(8) %0, i32 noundef %1) #17 comdat align 2 {
  %3 = alloca ptr, align 8
  %4 = alloca i32, align 4
  %5 = alloca i32, align 4
  %6 = alloca i64, align 8
  store ptr %0, ptr %3, align 8, !tbaa !422
  store i32 %1, ptr %4, align 4, !tbaa !32
  %7 = load ptr, ptr %3, align 8
  call void @llvm.lifetime.start.p0(i64 4, ptr %5) #19
  %8 = load i32, ptr %4, align 4, !tbaa !32
  %9 = call noundef i32 @_ZStanSt12memory_orderSt23__memory_order_modifier(i32 noundef %8, i32 noundef 65535)
  store i32 %9, ptr %5, align 4, !tbaa !32
  br label %10

10:                                               ; preds = %2
  br label %11

11:                                               ; preds = %10
  br label %12

12:                                               ; preds = %11
  br label %13

13:                                               ; preds = %12
  br label %14

14:                                               ; preds = %13
  br label %15

15:                                               ; preds = %14
  %16 = getelementptr inbounds nuw %"struct.std::__atomic_base.3", ptr %7, i32 0, i32 0
  %17 = load i32, ptr %4, align 4, !tbaa !32
  switch i32 %17, label %18 [
    i32 1, label %20
    i32 2, label %20
    i32 5, label %22
  ]

18:                                               ; preds = %15
  %19 = load atomic i64, ptr %16 monotonic, align 8
  store i64 %19, ptr %6, align 8
  br label %24

20:                                               ; preds = %15, %15
  %21 = load atomic i64, ptr %16 acquire, align 8
  store i64 %21, ptr %6, align 8
  br label %24

22:                                               ; preds = %15
  %23 = load atomic i64, ptr %16 seq_cst, align 8
  store i64 %23, ptr %6, align 8
  br label %24

24:                                               ; preds = %22, %20, %18
  %25 = load i64, ptr %6, align 8, !tbaa !18
  call void @llvm.lifetime.end.p0(i64 4, ptr %5) #19
  ret i64 %25
}

; Function Attrs: mustprogress uwtable
define hidden noundef i64 @_Z13_mi_clock_nowv() #0 {
  %1 = call noundef i64 @_Z18_mi_prim_clock_nowv()
  ret i64 %1
}

; Function Attrs: noinline noreturn nounwind uwtable
define linkonce_odr hidden void @__clang_call_terminate(ptr noundef %0) #7 comdat {
  %2 = call ptr @__cxa_begin_catch(ptr %0) #19
  call void @_ZSt9terminatev() #20
  unreachable
}

; Function Attrs: mustprogress uwtable
define hidden void @_Z21_mi_prim_process_infoP17mi_process_info_s(ptr noundef %0) #0 {
  %2 = alloca ptr, align 8
  %3 = alloca %struct.rusage, align 8
  store ptr %0, ptr %2, align 8, !tbaa !392
  call void @llvm.lifetime.start.p0(i64 144, ptr %3) #19
  %4 = call i32 @getrusage(i32 noundef 0, ptr noundef %3) #19
  %5 = getelementptr inbounds nuw %struct.rusage, ptr %3, i32 0, i32 0
  %6 = call noundef i64 @_ZL12timeval_secsPK7timeval(ptr noundef %5)
  %7 = load ptr, ptr %2, align 8, !tbaa !392
  %8 = getelementptr inbounds nuw %struct.mi_process_info_s, ptr %7, i32 0, i32 1
  store i64 %6, ptr %8, align 8, !tbaa !387
  %9 = getelementptr inbounds nuw %struct.rusage, ptr %3, i32 0, i32 1
  %10 = call noundef i64 @_ZL12timeval_secsPK7timeval(ptr noundef %9)
  %11 = load ptr, ptr %2, align 8, !tbaa !392
  %12 = getelementptr inbounds nuw %struct.mi_process_info_s, ptr %11, i32 0, i32 2
  store i64 %10, ptr %12, align 8, !tbaa !388
  %13 = getelementptr inbounds nuw %struct.rusage, ptr %3, i32 0, i32 7
  %14 = load i64, ptr %13, align 8, !tbaa !28
  %15 = load ptr, ptr %2, align 8, !tbaa !392
  %16 = getelementptr inbounds nuw %struct.mi_process_info_s, ptr %15, i32 0, i32 7
  store i64 %14, ptr %16, align 8, !tbaa !389
  %17 = getelementptr inbounds nuw %struct.rusage, ptr %3, i32 0, i32 2
  %18 = load i64, ptr %17, align 8, !tbaa !28
  %19 = mul nsw i64 %18, 1024
  %20 = load ptr, ptr %2, align 8, !tbaa !392
  %21 = getelementptr inbounds nuw %struct.mi_process_info_s, ptr %20, i32 0, i32 4
  store i64 %19, ptr %21, align 8, !tbaa !386
  call void @llvm.lifetime.end.p0(i64 144, ptr %3) #19
  ret void
}

; Function Attrs: inlinehint mustprogress nounwind uwtable
define linkonce_odr noundef i64 @_ZSt20atomic_load_explicitIlET_PKSt6atomicIS0_ESt12memory_order(ptr noundef %0, i32 noundef %1) #3 comdat {
  %3 = alloca ptr, align 8
  %4 = alloca i32, align 4
  store ptr %0, ptr %3, align 8, !tbaa !390
  store i32 %1, ptr %4, align 4, !tbaa !32
  %5 = load ptr, ptr %3, align 8, !tbaa !390
  %6 = load i32, ptr %4, align 4, !tbaa !32
  %7 = call noundef i64 @_ZNKSt13__atomic_baseIlE4loadESt12memory_order(ptr noundef nonnull align 8 dereferenceable(8) %5, i32 noundef %6) #19
  ret i64 %7
}

; Function Attrs: mustprogress uwtable
define hidden noundef i64 @_Z13_mi_clock_endl(i64 noundef %0) #0 {
  %2 = alloca i64, align 8
  %3 = alloca i64, align 8
  store i64 %0, ptr %2, align 8, !tbaa !18
  call void @llvm.lifetime.start.p0(i64 8, ptr %3) #19
  %4 = call noundef i64 @_Z13_mi_clock_nowv()
  store i64 %4, ptr %3, align 8, !tbaa !18
  %5 = load i64, ptr %3, align 8, !tbaa !18
  %6 = load i64, ptr %2, align 8, !tbaa !18
  %7 = sub nsw i64 %5, %6
  %8 = load i64, ptr @_ZL13mi_clock_diff, align 8, !tbaa !18
  %9 = sub nsw i64 %7, %8
  call void @llvm.lifetime.end.p0(i64 8, ptr %3) #19
  ret i64 %9
}

; Function Attrs: mustprogress nounwind uwtable
define void @mi_process_info(ptr noundef %0, ptr noundef %1, ptr noundef %2, ptr noundef %3, ptr noundef %4, ptr noundef %5, ptr noundef %6, ptr noundef %7) #5 personality ptr @__gxx_personality_v0 {
  %9 = alloca ptr, align 8
  %10 = alloca ptr, align 8
  %11 = alloca ptr, align 8
  %12 = alloca ptr, align 8
  %13 = alloca ptr, align 8
  %14 = alloca ptr, align 8
  %15 = alloca ptr, align 8
  %16 = alloca ptr, align 8
  %17 = alloca %struct.mi_process_info_s, align 8
  store ptr %0, ptr %9, align 8, !tbaa !46
  store ptr %1, ptr %10, align 8, !tbaa !46
  store ptr %2, ptr %11, align 8, !tbaa !46
  store ptr %3, ptr %12, align 8, !tbaa !46
  store ptr %4, ptr %13, align 8, !tbaa !46
  store ptr %5, ptr %14, align 8, !tbaa !46
  store ptr %6, ptr %15, align 8, !tbaa !46
  store ptr %7, ptr %16, align 8, !tbaa !46
  call void @llvm.lifetime.start.p0(i64 64, ptr %17) #19
  call void @llvm.memset.p0.i64(ptr align 8 %17, i8 0, i64 64, i1 false)
  %18 = load i64, ptr @_ZL16mi_process_start, align 8, !tbaa !18
  %19 = invoke noundef i64 @_Z13_mi_clock_endl(i64 noundef %18)
          to label %20 unwind label %134

20:                                               ; preds = %8
  %21 = getelementptr inbounds nuw %struct.mi_process_info_s, ptr %17, i32 0, i32 0
  store i64 %19, ptr %21, align 8, !tbaa !381
  %22 = call noundef i64 @_ZSt20atomic_load_explicitIlET_PKSt6atomicIS0_ESt12memory_order(ptr noundef getelementptr inbounds nuw (%struct.mi_stat_count_s, ptr getelementptr inbounds nuw (%struct.mi_stats_s, ptr @_mi_stats_main, i32 0, i32 3), i32 0, i32 2), i32 noundef 0) #19
  %23 = getelementptr inbounds nuw %struct.mi_process_info_s, ptr %17, i32 0, i32 5
  store i64 %22, ptr %23, align 8, !tbaa !383
  %24 = call noundef i64 @_ZSt20atomic_load_explicitIlET_PKSt6atomicIS0_ESt12memory_order(ptr noundef getelementptr inbounds nuw (%struct.mi_stat_count_s, ptr getelementptr inbounds nuw (%struct.mi_stats_s, ptr @_mi_stats_main, i32 0, i32 3), i32 0, i32 1), i32 noundef 0) #19
  %25 = getelementptr inbounds nuw %struct.mi_process_info_s, ptr %17, i32 0, i32 6
  store i64 %24, ptr %25, align 8, !tbaa !384
  %26 = getelementptr inbounds nuw %struct.mi_process_info_s, ptr %17, i32 0, i32 5
  %27 = load i64, ptr %26, align 8, !tbaa !383
  %28 = getelementptr inbounds nuw %struct.mi_process_info_s, ptr %17, i32 0, i32 3
  store i64 %27, ptr %28, align 8, !tbaa !385
  %29 = getelementptr inbounds nuw %struct.mi_process_info_s, ptr %17, i32 0, i32 6
  %30 = load i64, ptr %29, align 8, !tbaa !384
  %31 = getelementptr inbounds nuw %struct.mi_process_info_s, ptr %17, i32 0, i32 4
  store i64 %30, ptr %31, align 8, !tbaa !386
  %32 = getelementptr inbounds nuw %struct.mi_process_info_s, ptr %17, i32 0, i32 1
  store i64 0, ptr %32, align 8, !tbaa !387
  %33 = getelementptr inbounds nuw %struct.mi_process_info_s, ptr %17, i32 0, i32 2
  store i64 0, ptr %33, align 8, !tbaa !388
  %34 = getelementptr inbounds nuw %struct.mi_process_info_s, ptr %17, i32 0, i32 7
  store i64 0, ptr %34, align 8, !tbaa !389
  invoke void @_Z21_mi_prim_process_infoP17mi_process_info_s(ptr noundef %17)
          to label %35 unwind label %134

35:                                               ; preds = %20
  %36 = load ptr, ptr %9, align 8, !tbaa !46
  %37 = icmp ne ptr %36, null
  br i1 %37, label %38, label %56

38:                                               ; preds = %35
  %39 = getelementptr inbounds nuw %struct.mi_process_info_s, ptr %17, i32 0, i32 0
  %40 = load i64, ptr %39, align 8, !tbaa !381
  %41 = icmp slt i64 %40, 0
  br i1 %41, label %42, label %43

42:                                               ; preds = %38
  br label %53

43:                                               ; preds = %38
  %44 = getelementptr inbounds nuw %struct.mi_process_info_s, ptr %17, i32 0, i32 0
  %45 = load i64, ptr %44, align 8, !tbaa !381
  %46 = icmp slt i64 %45, 9223372036854775807
  br i1 %46, label %47, label %50

47:                                               ; preds = %43
  %48 = getelementptr inbounds nuw %struct.mi_process_info_s, ptr %17, i32 0, i32 0
  %49 = load i64, ptr %48, align 8, !tbaa !381
  br label %51

50:                                               ; preds = %43
  br label %51

51:                                               ; preds = %50, %47
  %52 = phi i64 [ %49, %47 ], [ 9223372036854775807, %50 ]
  br label %53

53:                                               ; preds = %51, %42
  %54 = phi i64 [ 0, %42 ], [ %52, %51 ]
  %55 = load ptr, ptr %9, align 8, !tbaa !46
  store i64 %54, ptr %55, align 8, !tbaa !18
  br label %56

56:                                               ; preds = %53, %35
  %57 = load ptr, ptr %10, align 8, !tbaa !46
  %58 = icmp ne ptr %57, null
  br i1 %58, label %59, label %77

59:                                               ; preds = %56
  %60 = getelementptr inbounds nuw %struct.mi_process_info_s, ptr %17, i32 0, i32 1
  %61 = load i64, ptr %60, align 8, !tbaa !387
  %62 = icmp slt i64 %61, 0
  br i1 %62, label %63, label %64

63:                                               ; preds = %59
  br label %74

64:                                               ; preds = %59
  %65 = getelementptr inbounds nuw %struct.mi_process_info_s, ptr %17, i32 0, i32 1
  %66 = load i64, ptr %65, align 8, !tbaa !387
  %67 = icmp slt i64 %66, 9223372036854775807
  br i1 %67, label %68, label %71

68:                                               ; preds = %64
  %69 = getelementptr inbounds nuw %struct.mi_process_info_s, ptr %17, i32 0, i32 1
  %70 = load i64, ptr %69, align 8, !tbaa !387
  br label %72

71:                                               ; preds = %64
  br label %72

72:                                               ; preds = %71, %68
  %73 = phi i64 [ %70, %68 ], [ 9223372036854775807, %71 ]
  br label %74

74:                                               ; preds = %72, %63
  %75 = phi i64 [ 0, %63 ], [ %73, %72 ]
  %76 = load ptr, ptr %10, align 8, !tbaa !46
  store i64 %75, ptr %76, align 8, !tbaa !18
  br label %77

77:                                               ; preds = %74, %56
  %78 = load ptr, ptr %11, align 8, !tbaa !46
  %79 = icmp ne ptr %78, null
  br i1 %79, label %80, label %98

80:                                               ; preds = %77
  %81 = getelementptr inbounds nuw %struct.mi_process_info_s, ptr %17, i32 0, i32 2
  %82 = load i64, ptr %81, align 8, !tbaa !388
  %83 = icmp slt i64 %82, 0
  br i1 %83, label %84, label %85

84:                                               ; preds = %80
  br label %95

85:                                               ; preds = %80
  %86 = getelementptr inbounds nuw %struct.mi_process_info_s, ptr %17, i32 0, i32 2
  %87 = load i64, ptr %86, align 8, !tbaa !388
  %88 = icmp slt i64 %87, 9223372036854775807
  br i1 %88, label %89, label %92

89:                                               ; preds = %85
  %90 = getelementptr inbounds nuw %struct.mi_process_info_s, ptr %17, i32 0, i32 2
  %91 = load i64, ptr %90, align 8, !tbaa !388
  br label %93

92:                                               ; preds = %85
  br label %93

93:                                               ; preds = %92, %89
  %94 = phi i64 [ %91, %89 ], [ 9223372036854775807, %92 ]
  br label %95

95:                                               ; preds = %93, %84
  %96 = phi i64 [ 0, %84 ], [ %94, %93 ]
  %97 = load ptr, ptr %11, align 8, !tbaa !46
  store i64 %96, ptr %97, align 8, !tbaa !18
  br label %98

98:                                               ; preds = %95, %77
  %99 = load ptr, ptr %12, align 8, !tbaa !46
  %100 = icmp ne ptr %99, null
  br i1 %100, label %101, label %105

101:                                              ; preds = %98
  %102 = getelementptr inbounds nuw %struct.mi_process_info_s, ptr %17, i32 0, i32 3
  %103 = load i64, ptr %102, align 8, !tbaa !385
  %104 = load ptr, ptr %12, align 8, !tbaa !46
  store i64 %103, ptr %104, align 8, !tbaa !18
  br label %105

105:                                              ; preds = %101, %98
  %106 = load ptr, ptr %13, align 8, !tbaa !46
  %107 = icmp ne ptr %106, null
  br i1 %107, label %108, label %112

108:                                              ; preds = %105
  %109 = getelementptr inbounds nuw %struct.mi_process_info_s, ptr %17, i32 0, i32 4
  %110 = load i64, ptr %109, align 8, !tbaa !386
  %111 = load ptr, ptr %13, align 8, !tbaa !46
  store i64 %110, ptr %111, align 8, !tbaa !18
  br label %112

112:                                              ; preds = %108, %105
  %113 = load ptr, ptr %14, align 8, !tbaa !46
  %114 = icmp ne ptr %113, null
  br i1 %114, label %115, label %119

115:                                              ; preds = %112
  %116 = getelementptr inbounds nuw %struct.mi_process_info_s, ptr %17, i32 0, i32 5
  %117 = load i64, ptr %116, align 8, !tbaa !383
  %118 = load ptr, ptr %14, align 8, !tbaa !46
  store i64 %117, ptr %118, align 8, !tbaa !18
  br label %119

119:                                              ; preds = %115, %112
  %120 = load ptr, ptr %15, align 8, !tbaa !46
  %121 = icmp ne ptr %120, null
  br i1 %121, label %122, label %126

122:                                              ; preds = %119
  %123 = getelementptr inbounds nuw %struct.mi_process_info_s, ptr %17, i32 0, i32 6
  %124 = load i64, ptr %123, align 8, !tbaa !384
  %125 = load ptr, ptr %15, align 8, !tbaa !46
  store i64 %124, ptr %125, align 8, !tbaa !18
  br label %126

126:                                              ; preds = %122, %119
  %127 = load ptr, ptr %16, align 8, !tbaa !46
  %128 = icmp ne ptr %127, null
  br i1 %128, label %129, label %133

129:                                              ; preds = %126
  %130 = getelementptr inbounds nuw %struct.mi_process_info_s, ptr %17, i32 0, i32 7
  %131 = load i64, ptr %130, align 8, !tbaa !389
  %132 = load ptr, ptr %16, align 8, !tbaa !46
  store i64 %131, ptr %132, align 8, !tbaa !18
  br label %133

133:                                              ; preds = %129, %126
  call void @llvm.lifetime.end.p0(i64 64, ptr %17) #19
  ret void

134:                                              ; preds = %20, %8
  %135 = landingpad { ptr, i32 }
          catch ptr null
  %136 = extractvalue { ptr, i32 } %135, 0
  call void @__clang_call_terminate(ptr %136) #20
  unreachable
}