; Function Attrs: mustprogress nounwind uwtable
define void @mi_process_info(ptr noundef writeonly captures(address_is_null) %0, ptr noundef writeonly captures(address_is_null) %1, ptr noundef writeonly captures(address_is_null) %2, ptr noundef writeonly captures(address_is_null) %3, ptr noundef writeonly captures(address_is_null) %4, ptr noundef writeonly captures(address_is_null) %5, ptr noundef writeonly captures(address_is_null) %6, ptr noundef writeonly captures(address_is_null) %7) local_unnamed_addr #3 personality ptr @__gxx_personality_v0 {
  %9 = alloca %struct.rusage, align 8
  %10 = alloca %struct.timespec, align 8
  %11 = load i64, ptr @_ZL16mi_process_start, align 8, !tbaa !69
  call void @llvm.lifetime.start.p0(i64 16, ptr nonnull %10) #55
  %12 = call i32 @clock_gettime(i32 noundef 1, ptr noundef nonnull %10) #55
  %13 = load i64, ptr %10, align 8, !tbaa !148
  %14 = getelementptr inbounds nuw i8, ptr %10, i64 8
  %15 = load i64, ptr %14, align 8, !tbaa !150
  call void @llvm.lifetime.end.p0(i64 16, ptr nonnull %10) #55
  %16 = load i64, ptr @_ZL13mi_clock_diff, align 8, !tbaa !69
  %17 = load atomic i64, ptr getelementptr inbounds nuw (i8, ptr @_mi_stats_main, i64 72) monotonic, align 8
  %18 = load atomic i64, ptr getelementptr inbounds nuw (i8, ptr @_mi_stats_main, i64 64) monotonic, align 64
  call void @llvm.lifetime.start.p0(i64 144, ptr nonnull %9) #55
  %19 = call i32 @getrusage(i32 noundef 0, ptr noundef nonnull %9) #55
  %.val.i = load i64, ptr %9, align 8, !tbaa !322
  %20 = getelementptr inbounds nuw i8, ptr %9, i64 8
  %.val4.i = load i64, ptr %20, align 8, !tbaa !324
  %21 = mul nsw i64 %.val.i, 1000
  %22 = sdiv i64 %.val4.i, 1000
  %23 = add nsw i64 %22, %21
  %24 = getelementptr inbounds nuw i8, ptr %9, i64 16
  %.val5.i = load i64, ptr %24, align 8, !tbaa !322
  %25 = getelementptr inbounds nuw i8, ptr %9, i64 24
  %.val6.i = load i64, ptr %25, align 8, !tbaa !324
  %26 = mul nsw i64 %.val5.i, 1000
  %27 = sdiv i64 %.val6.i, 1000
  %28 = add nsw i64 %27, %26
  %29 = getelementptr inbounds nuw i8, ptr %9, i64 72
  %30 = load i64, ptr %29, align 8, !tbaa !25
  %31 = getelementptr inbounds nuw i8, ptr %9, i64 32
  %32 = load i64, ptr %31, align 8, !tbaa !25
  %33 = shl nsw i64 %32, 10
  call void @llvm.lifetime.end.p0(i64 144, ptr nonnull %9) #55
  %.not = icmp eq ptr %0, null
  br i1 %.not, label %41, label %34

34:                                               ; preds = %8
  %35 = mul nsw i64 %13, 1000
  %36 = sdiv i64 %15, 1000000
  %37 = add i64 %35, %36
  %38 = add i64 %11, %16
  %39 = sub i64 %37, %38
  %40 = call i64 @llvm.smax.i64(i64 %39, i64 0)
  store i64 %40, ptr %0, align 8, !tbaa !69
  br label %41

41:                                               ; preds = %34, %8
  %.not23 = icmp eq ptr %1, null
  br i1 %.not23, label %44, label %42

42:                                               ; preds = %41
  %43 = call i64 @llvm.smax.i64(i64 %23, i64 0)
  store i64 %43, ptr %1, align 8, !tbaa !69
  br label %44

44:                                               ; preds = %42, %41
  %.not24 = icmp eq ptr %2, null
  br i1 %.not24, label %47, label %45

45:                                               ; preds = %44
  %46 = call i64 @llvm.smax.i64(i64 %28, i64 0)
  store i64 %46, ptr %2, align 8, !tbaa !69
  br label %47

47:                                               ; preds = %45, %44
  %.not25 = icmp eq ptr %3, null
  br i1 %.not25, label %49, label %48

48:                                               ; preds = %47
  store i64 %17, ptr %3, align 8, !tbaa !69
  br label %49

49:                                               ; preds = %48, %47
  %.not26 = icmp eq ptr %4, null
  br i1 %.not26, label %51, label %50

50:                                               ; preds = %49
  store i64 %33, ptr %4, align 8, !tbaa !69
  br label %51

51:                                               ; preds = %50, %49
  %.not27 = icmp eq ptr %5, null
  br i1 %.not27, label %53, label %52

52:                                               ; preds = %51
  store i64 %17, ptr %5, align 8, !tbaa !69
  br label %53

53:                                               ; preds = %52, %51
  %.not28 = icmp eq ptr %6, null
  br i1 %.not28, label %55, label %54

54:                                               ; preds = %53
  store i64 %18, ptr %6, align 8, !tbaa !69
  br label %55

55:                                               ; preds = %54, %53
  %.not29 = icmp eq ptr %7, null
  br i1 %.not29, label %57, label %56

56:                                               ; preds = %55
  store i64 %30, ptr %7, align 8, !tbaa !69
  br label %57

57:                                               ; preds = %56, %55
  ret void
}